target datalayout = "e-m:e-p270:32:32-p271:32:32-p272:64:64-i64:64-i128:128-f80:128-n8:16:32:64-S128"
target triple = "x86_64-pc-linux-gnu"

%"class.o3dgc::Arithmetic_Codec" = type <{ ptr, ptr, ptr, i32, i32, i32, i32, i32, [4 x i8] }>

@.str = private unnamed_addr constant [26 x i8] c"invalid codec buffer size\00", align 1
@.str.1 = private unnamed_addr constant [45 x i8] c"cannot set buffer while encoding or decoding\00", align 1

; Function Attrs: mustprogress uwtable
define hidden void @_ZN5o3dgc16Arithmetic_Codec10set_bufferEjPh(ptr noundef nonnull align 8 dereferenceable(44) %0, i32 noundef %1, ptr noundef %2) #0 align 2 {
  %4 = alloca ptr, align 8
  %5 = alloca i32, align 4
  %6 = alloca ptr, align 8
  store ptr %0, ptr %4, align 8
  store i32 %1, ptr %5, align 4
  store ptr %2, ptr %6, align 8
  %7 = load ptr, ptr %4, align 8
  %8 = load i32, ptr %5, align 4
  %9 = icmp ne i32 %8, 0
  br i1 %9, label %11, label %10

10:                                               ; preds = %3
  call void @_ZN5o3dgcL8AC_ErrorEPKc(ptr noundef @.str) #13
  unreachable

11:                                               ; preds = %3
  %12 = getelementptr inbounds nuw %"class.o3dgc::Arithmetic_Codec", ptr %7, i32 0, i32 7
  %13 = load i32, ptr %12, align 8
  %14 = icmp ne i32 %13, 0
  br i1 %14, label %15, label %16

15:                                               ; preds = %11
  call void @_ZN5o3dgcL8AC_ErrorEPKc(ptr noundef @.str.1) #13
  unreachable

16:                                               ; preds = %11
  %17 = load ptr, ptr %6, align 8
  %18 = icmp ne ptr %17, null
  br i1 %18, label %19, label %30

19:                                               ; preds = %16
  %20 = load i32, ptr %5, align 4
  %21 = getelementptr inbounds nuw %"class.o3dgc::Arithmetic_Codec", ptr %7, i32 0, i32 6
  store i32 %20, ptr %21, align 4
  %22 = load ptr, ptr %6, align 8
  %23 = getelementptr inbounds nuw %"class.o3dgc::Arithmetic_Codec", ptr %7, i32 0, i32 0
  store ptr %22, ptr %23, align 8
  %24 = getelementptr inbounds nuw %"class.o3dgc::Arithmetic_Codec", ptr %7, i32 0, i32 1
  %25 = load ptr, ptr %24, align 8
  %26 = icmp eq ptr %25, null
  br i1 %26, label %28, label %27

27:                                               ; preds = %19
  call void @_ZdaPv(ptr noundef %25) #14
  br label %28

28:                                               ; preds = %27, %19
  %29 = getelementptr inbounds nuw %"class.o3dgc::Arithmetic_Codec", ptr %7, i32 0, i32 1
  store ptr null, ptr %29, align 8
  br label %53

30:                                               ; preds = %16
  %31 = load i32, ptr %5, align 4
  %32 = getelementptr inbounds nuw %"class.o3dgc::Arithmetic_Codec", ptr %7, i32 0, i32 6
  %33 = load i32, ptr %32, align 4
  %34 = icmp ule i32 %31, %33
  br i1 %34, label %35, label %36

35:                                               ; preds = %30
  br label %53

36:                                               ; preds = %30
  %37 = load i32, ptr %5, align 4
  %38 = getelementptr inbounds nuw %"class.o3dgc::Arithmetic_Codec", ptr %7, i32 0, i32 6
  store i32 %37, ptr %38, align 4
  %39 = getelementptr inbounds nuw %"class.o3dgc::Arithmetic_Codec", ptr %7, i32 0, i32 1
  %40 = load ptr, ptr %39, align 8
  %41 = icmp eq ptr %40, null
  br i1 %41, label %43, label %42

42:                                               ; preds = %36
  call void @_ZdaPv(ptr noundef %40) #14
  br label %43

43:                                               ; preds = %42, %36
  %44 = getelementptr inbounds nuw %"class.o3dgc::Arithmetic_Codec", ptr %7, i32 0, i32 6
  %45 = load i32, ptr %44, align 4
  %46 = add i32 %45, 16
  %47 = zext i32 %46 to i64
  %48 = call noalias noundef nonnull ptr @_Znam(i64 noundef %47) #15
  %49 = getelementptr inbounds nuw %"class.o3dgc::Arithmetic_Codec", ptr %7, i32 0, i32 1
  store ptr %48, ptr %49, align 8
  %50 = getelementptr inbounds nuw %"class.o3dgc::Arithmetic_Codec", ptr %7, i32 0, i32 1
  %51 = load ptr, ptr %50, align 8
  %52 = getelementptr inbounds nuw %"class.o3dgc::Arithmetic_Codec", ptr %7, i32 0, i32 0
  store ptr %51, ptr %52, align 8
  br label %53

53:                                               ; preds = %43, %35, %28
  ret void
}