; Function Attrs: mustprogress uwtable
define hidden void @_ZN5o3dgc16Arithmetic_Codec10set_bufferEjPh(ptr noundef nonnull align 8 captures(none) dereferenceable(44) %0, i32 noundef %1, ptr noundef %2) local_unnamed_addr #5 align 2 {
  %.not = icmp eq i32 %1, 0
  br i1 %.not, label %4, label %5

4:                                                ; preds = %3
  tail call fastcc void @_ZN5o3dgcL8AC_ErrorEPKc(ptr noundef nonnull @.str) #16
  unreachable

5:                                                ; preds = %3
  %6 = getelementptr inbounds nuw i8, ptr %0, i64 40
  %7 = load i32, ptr %6, align 8
  %.not9 = icmp eq i32 %7, 0
  br i1 %.not9, label %9, label %8

8:                                                ; preds = %5
  tail call fastcc void @_ZN5o3dgcL8AC_ErrorEPKc(ptr noundef nonnull @.str.1) #16
  unreachable

9:                                                ; preds = %5
  %.not10 = icmp eq ptr %2, null
  %10 = getelementptr inbounds nuw i8, ptr %0, i64 36
  br i1 %.not10, label %17, label %11

11:                                               ; preds = %9
  store i32 %1, ptr %10, align 4
  store ptr %2, ptr %0, align 8
  %12 = getelementptr inbounds nuw i8, ptr %0, i64 8
  %13 = load ptr, ptr %12, align 8
  %14 = icmp eq ptr %13, null
  br i1 %14, label %16, label %15

15:                                               ; preds = %11
  tail call void @_ZdaPv(ptr noundef nonnull %13) #17
  br label %16

16:                                               ; preds = %15, %11
  store ptr null, ptr %12, align 8
  br label %29

17:                                               ; preds = %9
  %18 = load i32, ptr %10, align 4
  %.not11 = icmp ugt i32 %1, %18
  br i1 %.not11, label %19, label %29

19:                                               ; preds = %17
  store i32 %1, ptr %10, align 4
  %20 = getelementptr inbounds nuw i8, ptr %0, i64 8
  %21 = load ptr, ptr %20, align 8
  %22 = icmp eq ptr %21, null
  br i1 %22, label %24, label %23

23:                                               ; preds = %19
  tail call void @_ZdaPv(ptr noundef nonnull %21) #17
  %.pre = load i32, ptr %10, align 4
  br label %24

24:                                               ; preds = %23, %19
  %25 = phi i32 [ %.pre, %23 ], [ %1, %19 ]
  %26 = add i32 %25, 16
  %27 = zext i32 %26 to i64
  %28 = tail call noalias noundef nonnull ptr @_Znam(i64 noundef %27) #18
  store ptr %28, ptr %20, align 8
  store ptr %28, ptr %0, align 8
  br label %29

29:                                               ; preds = %17, %24, %16
  ret void
}